; Function Attrs: mustprogress uwtable
define hidden void @_ZN4lean13mk_llnf_sprojEjjj(ptr dead_on_unwind noalias writable sret(%"class.lean::expr") align 8 %0, i32 noundef %1, i32 noundef %2, i32 noundef %3) local_unnamed_addr #0 personality ptr @__gxx_personality_v0 {
  %5 = alloca %"class.lean::list_ref.61", align 8
  %6 = alloca %"class.lean::name", align 8
  %7 = alloca %"class.lean::name", align 8
  %8 = alloca %"class.lean::name", align 8
  call void @llvm.lifetime.start.p0(i64 8, ptr nonnull %6) #19
  call void @llvm.lifetime.start.p0(i64 8, ptr nonnull %7) #19
  call void @llvm.lifetime.start.p0(i64 8, ptr nonnull %8) #19
  %9 = load ptr, ptr @_ZN4leanL7g_sprojE, align 8, !tbaa !19
  call void @_ZN4lean4nameC1ERKS0_j(ptr noundef nonnull align 8 dereferenceable(8) %8, ptr noundef nonnull align 8 dereferenceable(8) %9, i32 noundef %1)
  invoke void @_ZN4lean4nameC1ERKS0_j(ptr noundef nonnull align 8 dereferenceable(8) %7, ptr noundef nonnull align 8 dereferenceable(8) %8, i32 noundef %2)
          to label %10 unwind label %66

10:                                               ; preds = %4
  invoke void @_ZN4lean4nameC1ERKS0_j(ptr noundef nonnull align 8 dereferenceable(8) %6, ptr noundef nonnull align 8 dereferenceable(8) %7, i32 noundef %3)
          to label %11 unwind label %68

11:                                               ; preds = %10
  call void @llvm.lifetime.start.p0(i64 8, ptr nonnull %5) #19, !noalias !44
  store ptr inttoptr (i64 1 to ptr), ptr %5, align 8, !tbaa !8, !noalias !44
  invoke void @_ZN4lean8mk_constERKNS_4nameERKNS_8list_refINS_5levelEEE(ptr dead_on_unwind writable sret(%"class.lean::expr") align 8 %0, ptr noundef nonnull align 8 dereferenceable(8) %6, ptr noundef nonnull align 8 dereferenceable(8) %5)
          to label %_ZN4lean11mk_constantERKNS_4nameERKNS_8list_refINS_5levelEEE.exit.i unwind label %.body

_ZN4lean11mk_constantERKNS_4nameERKNS_8list_refINS_5levelEEE.exit.i: ; preds = %11
  %12 = load ptr, ptr %5, align 8, !tbaa !8, !noalias !44
  %13 = ptrtoint ptr %12 to i64
  %14 = and i64 %13, 1
  %.not.i.i.i = icmp eq i64 %14, 0
  br i1 %.not.i.i.i, label %15, label %26

15:                                               ; preds = %_ZN4lean11mk_constantERKNS_4nameERKNS_8list_refINS_5levelEEE.exit.i
  %16 = load i32, ptr %12, align 4, !tbaa !10
  %17 = icmp sgt i32 %16, 1
  br i1 %17, label %18, label %20, !prof !13

18:                                               ; preds = %15
  %19 = add nsw i32 %16, -1
  store i32 %19, ptr %12, align 4, !tbaa !10
  br label %26

20:                                               ; preds = %15
  %.not.i.i.i.i = icmp eq i32 %16, 0
  br i1 %.not.i.i.i.i, label %26, label %21

21:                                               ; preds = %20
  invoke void @lean_dec_ref_cold(ptr noundef nonnull %12)
          to label %26 unwind label %22

22:                                               ; preds = %21
  %23 = landingpad { ptr, i32 }
          catch ptr null
  %24 = extractvalue { ptr, i32 } %23, 0
  call void @__clang_call_terminate(ptr %24) #20
  unreachable

.body:                                            ; preds = %11
  %25 = landingpad { ptr, i32 }
          cleanup
  call void @_ZN4lean10object_refD2Ev(ptr noundef nonnull align 8 dereferenceable(8) %5) #19
  call void @llvm.lifetime.end.p0(i64 8, ptr nonnull %5) #19, !noalias !44
  call void @_ZN4lean10object_refD2Ev(ptr noundef nonnull align 8 dereferenceable(8) %6) #19
  br label %70

26:                                               ; preds = %21, %20, %18, %_ZN4lean11mk_constantERKNS_4nameERKNS_8list_refINS_5levelEEE.exit.i
  call void @llvm.lifetime.end.p0(i64 8, ptr nonnull %5) #19, !noalias !44
  %27 = load ptr, ptr %6, align 8, !tbaa !8
  %28 = ptrtoint ptr %27 to i64
  %29 = and i64 %28, 1
  %.not.i.i = icmp eq i64 %29, 0
  br i1 %.not.i.i, label %30, label %_ZN4lean10object_refD2Ev.exit

30:                                               ; preds = %26
  %31 = load i32, ptr %27, align 4, !tbaa !10
  %32 = icmp sgt i32 %31, 1
  br i1 %32, label %33, label %35, !prof !13

33:                                               ; preds = %30
  %34 = add nsw i32 %31, -1
  store i32 %34, ptr %27, align 4, !tbaa !10
  br label %_ZN4lean10object_refD2Ev.exit

35:                                               ; preds = %30
  %.not.i.i.i8 = icmp eq i32 %31, 0
  br i1 %.not.i.i.i8, label %_ZN4lean10object_refD2Ev.exit, label %36

36:                                               ; preds = %35
  invoke void @lean_dec_ref_cold(ptr noundef nonnull %27)
          to label %_ZN4lean10object_refD2Ev.exit unwind label %37

37:                                               ; preds = %36
  %38 = landingpad { ptr, i32 }
          catch ptr null
  %39 = extractvalue { ptr, i32 } %38, 0
  call void @__clang_call_terminate(ptr %39) #20
  unreachable

_ZN4lean10object_refD2Ev.exit:                    ; preds = %26, %33, %35, %36
  %40 = load ptr, ptr %7, align 8, !tbaa !8
  %41 = ptrtoint ptr %40 to i64
  %42 = and i64 %41, 1
  %.not.i.i9 = icmp eq i64 %42, 0
  br i1 %.not.i.i9, label %43, label %_ZN4lean10object_refD2Ev.exit11

43:                                               ; preds = %_ZN4lean10object_refD2Ev.exit
  %44 = load i32, ptr %40, align 4, !tbaa !10
  %45 = icmp sgt i32 %44, 1
  br i1 %45, label %46, label %48, !prof !13

46:                                               ; preds = %43
  %47 = add nsw i32 %44, -1
  store i32 %47, ptr %40, align 4, !tbaa !10
  br label %_ZN4lean10object_refD2Ev.exit11

48:                                               ; preds = %43
  %.not.i.i.i10 = icmp eq i32 %44, 0
  br i1 %.not.i.i.i10, label %_ZN4lean10object_refD2Ev.exit11, label %49

49:                                               ; preds = %48
  invoke void @lean_dec_ref_cold(ptr noundef nonnull %40)
          to label %_ZN4lean10object_refD2Ev.exit11 unwind label %50

50:                                               ; preds = %49
  %51 = landingpad { ptr, i32 }
          catch ptr null
  %52 = extractvalue { ptr, i32 } %51, 0
  call void @__clang_call_terminate(ptr %52) #20
  unreachable

_ZN4lean10object_refD2Ev.exit11:                  ; preds = %_ZN4lean10object_refD2Ev.exit, %46, %48, %49
  %53 = load ptr, ptr %8, align 8, !tbaa !8
  %54 = ptrtoint ptr %53 to i64
  %55 = and i64 %54, 1
  %.not.i.i12 = icmp eq i64 %55, 0
  br i1 %.not.i.i12, label %56, label %_ZN4lean10object_refD2Ev.exit14

56:                                               ; preds = %_ZN4lean10object_refD2Ev.exit11
  %57 = load i32, ptr %53, align 4, !tbaa !10
  %58 = icmp sgt i32 %57, 1
  br i1 %58, label %59, label %61, !prof !13

59:                                               ; preds = %56
  %60 = add nsw i32 %57, -1
  store i32 %60, ptr %53, align 4, !tbaa !10
  br label %_ZN4lean10object_refD2Ev.exit14

61:                                               ; preds = %56
  %.not.i.i.i13 = icmp eq i32 %57, 0
  br i1 %.not.i.i.i13, label %_ZN4lean10object_refD2Ev.exit14, label %62

62:                                               ; preds = %61
  invoke void @lean_dec_ref_cold(ptr noundef nonnull %53)
          to label %_ZN4lean10object_refD2Ev.exit14 unwind label %63

63:                                               ; preds = %62
  %64 = landingpad { ptr, i32 }
          catch ptr null
  %65 = extractvalue { ptr, i32 } %64, 0
  call void @__clang_call_terminate(ptr %65) #20
  unreachable

_ZN4lean10object_refD2Ev.exit14:                  ; preds = %_ZN4lean10object_refD2Ev.exit11, %59, %61, %62
  call void @llvm.lifetime.end.p0(i64 8, ptr nonnull %8) #19
  call void @llvm.lifetime.end.p0(i64 8, ptr nonnull %7) #19
  call void @llvm.lifetime.end.p0(i64 8, ptr nonnull %6) #19
  ret void

66:                                               ; preds = %4
  %67 = landingpad { ptr, i32 }
          cleanup
  br label %71

68:                                               ; preds = %10
  %69 = landingpad { ptr, i32 }
          cleanup
  br label %70

70:                                               ; preds = %.body, %68
  %.pn = phi { ptr, i32 } [ %25, %.body ], [ %69, %68 ]
  call void @_ZN4lean10object_refD2Ev(ptr noundef nonnull align 8 dereferenceable(8) %7) #19
  br label %71

71:                                               ; preds = %70, %66
  %.pn.pn = phi { ptr, i32 } [ %.pn, %70 ], [ %67, %66 ]
  call void @_ZN4lean10object_refD2Ev(ptr noundef nonnull align 8 dereferenceable(8) %8) #19
  call void @llvm.lifetime.end.p0(i64 8, ptr nonnull %8) #19
  call void @llvm.lifetime.end.p0(i64 8, ptr nonnull %7) #19
  call void @llvm.lifetime.end.p0(i64 8, ptr nonnull %6) #19
  resume { ptr, i32 } %.pn.pn
}